target datalayout = "e-m:e-p270:32:32-p271:32:32-p272:64:64-i64:64-i128:128-f80:128-n8:16:32:64-S128"
target triple = "x86_64-pc-linux-gnu"

%class.NFALUT = type { ptr, i32, double, i32, i32 }

; Function Attrs: inlinehint mustprogress nounwind uwtable
define linkonce_odr noundef double @_ZSt3powIdiEN9__gnu_cxx11__promote_2IT_T0_NS0_9__promoteIS2_Xsr3std12__is_integerIS2_EE7__valueEE6__typeENS4_IS3_Xsr3std12__is_integerIS3_EE7__valueEE6__typeEE6__typeES2_S3_(double noundef %0, i32 noundef %1) #10 comdat {
  %3 = alloca double, align 8
  %4 = alloca i32, align 4
  store double %0, ptr %3, align 8, !tbaa !10
  store i32 %1, ptr %4, align 4, !tbaa !8
  %5 = load double, ptr %3, align 8, !tbaa !10
  %6 = load i32, ptr %4, align 4, !tbaa !8
  %7 = sitofp i32 %6 to double
  %8 = call double @pow(double noundef %5, double noundef %7) #3, !tbaa !8
  ret double %8
}

; Function Attrs: mustprogress nounwind uwtable
define hidden noundef double @_ZN6NFALUT4CombEdd(double noundef %0, double noundef %1) #8 align 2 {
  %3 = alloca double, align 8
  %4 = alloca double, align 8
  %5 = alloca double, align 8
  %6 = alloca double, align 8
  %7 = alloca double, align 8
  store double %0, ptr %4, align 8, !tbaa !10
  store double %1, ptr %5, align 8, !tbaa !10
  %8 = load double, ptr %5, align 8, !tbaa !10
  %9 = load double, ptr %4, align 8, !tbaa !10
  %10 = fcmp ogt double %8, %9
  br i1 %10, label %11, label %12

11:                                               ; preds = %2
  store double 0.000000e+00, ptr %3, align 8
  br label %31

12:                                               ; preds = %2
  call void @llvm.lifetime.start.p0(i64 8, ptr %6) #3
  store double 1.000000e+00, ptr %6, align 8, !tbaa !10
  call void @llvm.lifetime.start.p0(i64 8, ptr %7) #3
  store double 1.000000e+00, ptr %7, align 8, !tbaa !10
  br label %13

13:                                               ; preds = %26, %12
  %14 = load double, ptr %7, align 8, !tbaa !10
  %15 = load double, ptr %5, align 8, !tbaa !10
  %16 = fcmp ole double %14, %15
  br i1 %16, label %18, label %17

17:                                               ; preds = %13
  call void @llvm.lifetime.end.p0(i64 8, ptr %7) #3
  br label %29

18:                                               ; preds = %13
  %19 = load double, ptr %4, align 8, !tbaa !10
  %20 = fadd double %19, -1.000000e+00
  store double %20, ptr %4, align 8, !tbaa !10
  %21 = load double, ptr %6, align 8, !tbaa !10
  %22 = fmul double %21, %19
  store double %22, ptr %6, align 8, !tbaa !10
  %23 = load double, ptr %7, align 8, !tbaa !10
  %24 = load double, ptr %6, align 8, !tbaa !10
  %25 = fdiv double %24, %23
  store double %25, ptr %6, align 8, !tbaa !10
  br label %26

26:                                               ; preds = %18
  %27 = load double, ptr %7, align 8, !tbaa !10
  %28 = fadd double %27, 1.000000e+00
  store double %28, ptr %7, align 8, !tbaa !10
  br label %13, !llvm.loop !23

29:                                               ; preds = %17
  %30 = load double, ptr %6, align 8, !tbaa !10
  store double %30, ptr %3, align 8
  call void @llvm.lifetime.end.p0(i64 8, ptr %6) #3
  br label %31

31:                                               ; preds = %29, %11
  %32 = load double, ptr %3, align 8
  ret double %32
}

; Function Attrs: mustprogress uwtable
define hidden noundef double @_ZN6NFALUT3nfaEii(ptr noundef nonnull align 8 dereferenceable(32) %0, i32 noundef %1, i32 noundef %2) #4 align 2 {
  %4 = alloca ptr, align 8
  %5 = alloca i32, align 4
  %6 = alloca i32, align 4
  %7 = alloca double, align 8
  %8 = alloca double, align 8
  %9 = alloca i32, align 4
  store ptr %0, ptr %4, align 8, !tbaa !3
  store i32 %1, ptr %5, align 4, !tbaa !8
  store i32 %2, ptr %6, align 4, !tbaa !8
  %10 = load ptr, ptr %4, align 8
  call void @llvm.lifetime.start.p0(i64 8, ptr %7) #3
  store double 0.000000e+00, ptr %7, align 8, !tbaa !10
  call void @llvm.lifetime.start.p0(i64 8, ptr %8) #3
  store double 1.250000e-01, ptr %8, align 8, !tbaa !10
  call void @llvm.lifetime.start.p0(i64 4, ptr %9) #3
  %11 = load i32, ptr %6, align 4, !tbaa !8
  store i32 %11, ptr %9, align 4, !tbaa !8
  br label %12

12:                                               ; preds = %35, %3
  %13 = load i32, ptr %9, align 4, !tbaa !8
  %14 = load i32, ptr %5, align 4, !tbaa !8
  %15 = icmp sle i32 %13, %14
  br i1 %15, label %17, label %16

16:                                               ; preds = %12
  call void @llvm.lifetime.end.p0(i64 4, ptr %9) #3
  br label %38

17:                                               ; preds = %12
  %18 = load i32, ptr %5, align 4, !tbaa !8
  %19 = sitofp i32 %18 to double
  %20 = load i32, ptr %9, align 4, !tbaa !8
  %21 = sitofp i32 %20 to double
  %22 = call noundef double @_ZN6NFALUT4CombEdd(double noundef %19, double noundef %21)
  %23 = load double, ptr %8, align 8, !tbaa !10
  %24 = load i32, ptr %9, align 4, !tbaa !8
  %25 = call noundef double @_ZSt3powIdiEN9__gnu_cxx11__promote_2IT_T0_NS0_9__promoteIS2_Xsr3std12__is_integerIS2_EE7__valueEE6__typeENS4_IS3_Xsr3std12__is_integerIS3_EE7__valueEE6__typeEE6__typeES2_S3_(double noundef %23, i32 noundef %24)
  %26 = fmul double %22, %25
  %27 = load double, ptr %8, align 8, !tbaa !10
  %28 = fsub double 1.000000e+00, %27
  %29 = load i32, ptr %5, align 4, !tbaa !8
  %30 = load i32, ptr %9, align 4, !tbaa !8
  %31 = sub nsw i32 %29, %30
  %32 = call noundef double @_ZSt3powIdiEN9__gnu_cxx11__promote_2IT_T0_NS0_9__promoteIS2_Xsr3std12__is_integerIS2_EE7__valueEE6__typeENS4_IS3_Xsr3std12__is_integerIS3_EE7__valueEE6__typeEE6__typeES2_S3_(double noundef %28, i32 noundef %31)
  %33 = load double, ptr %7, align 8, !tbaa !10
  %34 = call double @llvm.fmuladd.f64(double %26, double %32, double %33)
  store double %34, ptr %7, align 8, !tbaa !10
  br label %35

35:                                               ; preds = %17
  %36 = load i32, ptr %9, align 4, !tbaa !8
  %37 = add nsw i32 %36, 1
  store i32 %37, ptr %9, align 4, !tbaa !8
  br label %12, !llvm.loop !22

38:                                               ; preds = %16
  %39 = load double, ptr %7, align 8, !tbaa !10
  %40 = getelementptr inbounds nuw %class.NFALUT, ptr %10, i32 0, i32 3
  %41 = load i32, ptr %40, align 8, !tbaa !16
  %42 = sitofp i32 %41 to double
  %43 = fmul double %39, %42
  %44 = getelementptr inbounds nuw %class.NFALUT, ptr %10, i32 0, i32 3
  %45 = load i32, ptr %44, align 8, !tbaa !16
  %46 = sitofp i32 %45 to double
  %47 = fmul double %43, %46
  %48 = getelementptr inbounds nuw %class.NFALUT, ptr %10, i32 0, i32 4
  %49 = load i32, ptr %48, align 4, !tbaa !17
  %50 = sitofp i32 %49 to double
  %51 = fmul double %47, %50
  %52 = getelementptr inbounds nuw %class.NFALUT, ptr %10, i32 0, i32 4
  %53 = load i32, ptr %52, align 4, !tbaa !17
  %54 = sitofp i32 %53 to double
  %55 = fmul double %51, %54
  call void @llvm.lifetime.end.p0(i64 8, ptr %8) #3
  call void @llvm.lifetime.end.p0(i64 8, ptr %7) #3
  ret double %55
}

; Function Attrs: mustprogress uwtable
define hidden void @_ZN6NFALUTC2Eidii(ptr noundef nonnull align 8 dereferenceable(32) %0, i32 noundef %1, double noundef %2, i32 noundef %3, i32 noundef %4) unnamed_addr #4 align 2 {
  %6 = alloca ptr, align 8
  %7 = alloca i32, align 4
  %8 = alloca double, align 8
  %9 = alloca i32, align 4
  %10 = alloca i32, align 4
  %11 = alloca i32, align 4
  %12 = alloca i32, align 4
  %13 = alloca i32, align 4
  %14 = alloca double, align 8
  store ptr %0, ptr %6, align 8, !tbaa !3
  store i32 %1, ptr %7, align 4, !tbaa !8
  store double %2, ptr %8, align 8, !tbaa !10
  store i32 %3, ptr %9, align 4, !tbaa !8
  store i32 %4, ptr %10, align 4, !tbaa !8
  %15 = load ptr, ptr %6, align 8
  %16 = load i32, ptr %7, align 4, !tbaa !8
  %17 = icmp sgt i32 %16, 60
  br i1 %17, label %18, label %19

18:                                               ; preds = %5
  br label %21

19:                                               ; preds = %5
  %20 = load i32, ptr %7, align 4, !tbaa !8
  br label %21

21:                                               ; preds = %19, %18
  %22 = phi i32 [ 60, %18 ], [ %20, %19 ]
  %23 = getelementptr inbounds nuw %class.NFALUT, ptr %15, i32 0, i32 1
  store i32 %22, ptr %23, align 8, !tbaa !12
  %24 = getelementptr inbounds nuw %class.NFALUT, ptr %15, i32 0, i32 1
  %25 = load i32, ptr %24, align 8, !tbaa !12
  %26 = sext i32 %25 to i64
  %27 = call { i64, i1 } @llvm.umul.with.overflow.i64(i64 %26, i64 4)
  %28 = extractvalue { i64, i1 } %27, 1
  %29 = extractvalue { i64, i1 } %27, 0
  %30 = select i1 %28, i64 -1, i64 %29
  %31 = call noalias noundef nonnull ptr @_Znam(i64 noundef %30) #23
  %32 = getelementptr inbounds nuw %class.NFALUT, ptr %15, i32 0, i32 0
  store ptr %31, ptr %32, align 8, !tbaa !15
  %33 = load i32, ptr %9, align 4, !tbaa !8
  %34 = getelementptr inbounds nuw %class.NFALUT, ptr %15, i32 0, i32 3
  store i32 %33, ptr %34, align 8, !tbaa !16
  %35 = load i32, ptr %10, align 4, !tbaa !8
  %36 = getelementptr inbounds nuw %class.NFALUT, ptr %15, i32 0, i32 4
  store i32 %35, ptr %36, align 4, !tbaa !17
  %37 = load double, ptr %8, align 8, !tbaa !10
  %38 = getelementptr inbounds nuw %class.NFALUT, ptr %15, i32 0, i32 2
  store double %37, ptr %38, align 8, !tbaa !18
  %39 = getelementptr inbounds nuw %class.NFALUT, ptr %15, i32 0, i32 0
  %40 = load ptr, ptr %39, align 8, !tbaa !15
  %41 = getelementptr inbounds i32, ptr %40, i64 0
  store i32 1, ptr %41, align 4, !tbaa !8
  call void @llvm.lifetime.start.p0(i64 4, ptr %11) #3
  store i32 1, ptr %11, align 4, !tbaa !8
  call void @llvm.lifetime.start.p0(i64 4, ptr %12) #3
  store i32 1, ptr %12, align 4, !tbaa !8
  br label %42

42:                                               ; preds = %92, %21
  %43 = load i32, ptr %12, align 4, !tbaa !8
  %44 = getelementptr inbounds nuw %class.NFALUT, ptr %15, i32 0, i32 1
  %45 = load i32, ptr %44, align 8, !tbaa !12
  %46 = icmp slt i32 %43, %45
  br i1 %46, label %48, label %47

47:                                               ; preds = %42
  store i32 2, ptr %13, align 4
  call void @llvm.lifetime.end.p0(i64 4, ptr %12) #3
  br label %95

48:                                               ; preds = %42
  %49 = getelementptr inbounds nuw %class.NFALUT, ptr %15, i32 0, i32 1
  %50 = load i32, ptr %49, align 8, !tbaa !12
  %51 = add nsw i32 %50, 1
  %52 = getelementptr inbounds nuw %class.NFALUT, ptr %15, i32 0, i32 0
  %53 = load ptr, ptr %52, align 8, !tbaa !15
  %54 = load i32, ptr %12, align 4, !tbaa !8
  %55 = sext i32 %54 to i64
  %56 = getelementptr inbounds i32, ptr %53, i64 %55
  store i32 %51, ptr %56, align 4, !tbaa !8
  call void @llvm.lifetime.start.p0(i64 8, ptr %14) #3
  %57 = load i32, ptr %12, align 4, !tbaa !8
  %58 = load i32, ptr %11, align 4, !tbaa !8
  %59 = call noundef double @_ZN6NFALUT3nfaEii(ptr noundef nonnull align 8 dereferenceable(32) %15, i32 noundef %57, i32 noundef %58)
  store double %59, ptr %14, align 8, !tbaa !10
  %60 = load double, ptr %14, align 8, !tbaa !10
  %61 = fcmp oge double %60, 1.000000e+00
  br i1 %61, label %62, label %82

62:                                               ; preds = %48
  br label %63

63:                                               ; preds = %76, %62
  %64 = load i32, ptr %11, align 4, !tbaa !8
  %65 = load i32, ptr %12, align 4, !tbaa !8
  %66 = icmp slt i32 %64, %65
  br i1 %66, label %67, label %77

67:                                               ; preds = %63
  %68 = load i32, ptr %11, align 4, !tbaa !8
  %69 = add nsw i32 %68, 1
  store i32 %69, ptr %11, align 4, !tbaa !8
  %70 = load i32, ptr %12, align 4, !tbaa !8
  %71 = load i32, ptr %11, align 4, !tbaa !8
  %72 = call noundef double @_ZN6NFALUT3nfaEii(ptr noundef nonnull align 8 dereferenceable(32) %15, i32 noundef %70, i32 noundef %71)
  store double %72, ptr %14, align 8, !tbaa !10
  %73 = load double, ptr %14, align 8, !tbaa !10
  %74 = fcmp ole double %73, 1.000000e+00
  br i1 %74, label %75, label %76

75:                                               ; preds = %67
  br label %77

76:                                               ; preds = %67
  br label %63, !llvm.loop !19

77:                                               ; preds = %75, %63
  %78 = load double, ptr %14, align 8, !tbaa !10
  %79 = fcmp oge double %78, 1.000000e+00
  br i1 %79, label %80, label %81

80:                                               ; preds = %77
  store i32 4, ptr %13, align 4
  br label %89

81:                                               ; preds = %77
  br label %82

82:                                               ; preds = %81, %48
  %83 = load i32, ptr %11, align 4, !tbaa !8
  %84 = getelementptr inbounds nuw %class.NFALUT, ptr %15, i32 0, i32 0
  %85 = load ptr, ptr %84, align 8, !tbaa !15
  %86 = load i32, ptr %12, align 4, !tbaa !8
  %87 = sext i32 %86 to i64
  %88 = getelementptr inbounds i32, ptr %85, i64 %87
  store i32 %83, ptr %88, align 4, !tbaa !8
  store i32 0, ptr %13, align 4
  br label %89

89:                                               ; preds = %82, %80
  call void @llvm.lifetime.end.p0(i64 8, ptr %14) #3
  %90 = load i32, ptr %13, align 4
  switch i32 %90, label %96 [
    i32 0, label %91
    i32 4, label %92
  ]

91:                                               ; preds = %89
  br label %92

92:                                               ; preds = %91, %89
  %93 = load i32, ptr %12, align 4, !tbaa !8
  %94 = add nsw i32 %93, 1
  store i32 %94, ptr %12, align 4, !tbaa !8
  br label %42, !llvm.loop !21

95:                                               ; preds = %47
  call void @llvm.lifetime.end.p0(i64 4, ptr %11) #3
  ret void

96:                                               ; preds = %89
  unreachable
}