; Function Attrs: mustprogress uwtable
define hidden void @_ZN6NFALUTC2Eidii(ptr noundef nonnull align 8 captures(none) dereferenceable(32) initializes((0, 12), (16, 32)) %0, i32 noundef %1, double noundef %2, i32 noundef %3, i32 noundef %4) unnamed_addr #3 align 2 {
  %6 = tail call i32 @llvm.smin.i32(i32 %1, i32 60)
  %7 = getelementptr inbounds nuw i8, ptr %0, i64 8
  store i32 %6, ptr %7, align 8, !tbaa !3
  %8 = sext i32 %6 to i64
  %9 = icmp slt i32 %1, 0
  %10 = shl nsw i64 %8, 2
  %11 = select i1 %9, i64 -1, i64 %10
  %12 = tail call noalias noundef nonnull ptr @_Znam(i64 noundef %11) #40
  store ptr %12, ptr %0, align 8, !tbaa !11
  %13 = getelementptr inbounds nuw i8, ptr %0, i64 24
  store i32 %3, ptr %13, align 8, !tbaa !12
  %14 = getelementptr inbounds nuw i8, ptr %0, i64 28
  store i32 %4, ptr %14, align 4, !tbaa !13
  %15 = getelementptr inbounds nuw i8, ptr %0, i64 16
  store double %2, ptr %15, align 8, !tbaa !14
  store i32 1, ptr %12, align 4, !tbaa !15
  %16 = icmp sgt i32 %1, 1
  br i1 %16, label %.lr.ph, label %._crit_edge55

._crit_edge55:                                    ; preds = %84, %5
  ret void

.lr.ph:                                           ; preds = %5, %84
  %indvars.iv = phi i64 [ %indvars.iv.next, %84 ], [ 1, %5 ]
  %17 = phi i32 [ %85, %84 ], [ %6, %5 ]
  %.02150 = phi i32 [ %.4, %84 ], [ 1, %5 ]
  %18 = add nsw i32 %17, 1
  %19 = load ptr, ptr %0, align 8, !tbaa !11
  %20 = getelementptr inbounds nuw i32, ptr %19, i64 %indvars.iv
  store i32 %18, ptr %20, align 4, !tbaa !15
  %21 = sext i32 %.02150 to i64
  %.not15.i = icmp slt i64 %indvars.iv, %21
  br i1 %.not15.i, label %_ZN6NFALUT3nfaEii.exit, label %.lr.ph.i

.lr.ph.i:                                         ; preds = %.lr.ph
  %22 = trunc nuw nsw i64 %indvars.iv to i32
  %23 = uitofp nneg i32 %22 to double
  br label %24

24:                                               ; preds = %_ZN6NFALUT4CombEdd.exit.i, %.lr.ph.i
  %.017.i = phi i32 [ %.02150, %.lr.ph.i ], [ %38, %_ZN6NFALUT4CombEdd.exit.i ]
  %.01316.i = phi double [ 0.000000e+00, %.lr.ph.i ], [ %37, %_ZN6NFALUT4CombEdd.exit.i ]
  %25 = sitofp i32 %.017.i to double
  %26 = fcmp ogt double %25, %23
  br i1 %26, label %_ZN6NFALUT4CombEdd.exit.i, label %.preheader.i.i

.preheader.i.i:                                   ; preds = %24
  %27 = icmp slt i32 %.017.i, 1
  br i1 %27, label %_ZN6NFALUT4CombEdd.exit.i, label %.lr.ph.i.i

.lr.ph.i.i:                                       ; preds = %.preheader.i.i, %.lr.ph.i.i
  %.018.i.i = phi double [ %31, %.lr.ph.i.i ], [ 1.000000e+00, %.preheader.i.i ]
  %.01117.i.i = phi double [ %30, %.lr.ph.i.i ], [ 1.000000e+00, %.preheader.i.i ]
  %.01316.i.i = phi double [ %28, %.lr.ph.i.i ], [ %23, %.preheader.i.i ]
  %28 = fadd double %.01316.i.i, -1.000000e+00
  %29 = fmul double %.01117.i.i, %.01316.i.i
  %30 = fdiv double %29, %.018.i.i
  %31 = fadd double %.018.i.i, 1.000000e+00
  %32 = fcmp ugt double %31, %25
  br i1 %32, label %_ZN6NFALUT4CombEdd.exit.i, label %.lr.ph.i.i, !llvm.loop !16

_ZN6NFALUT4CombEdd.exit.i:                        ; preds = %.lr.ph.i.i, %.preheader.i.i, %24
  %.012.i.i = phi double [ 0.000000e+00, %24 ], [ 1.000000e+00, %.preheader.i.i ], [ %30, %.lr.ph.i.i ]
  %mul.i = fmul double %25, -3.000000e+00
  %exp2.i = tail call double @exp2(double %mul.i)
  %33 = fmul double %.012.i.i, %exp2.i
  %34 = sub nsw i32 %22, %.017.i
  %35 = sitofp i32 %34 to double
  %36 = tail call noundef double @pow(double noundef 8.750000e-01, double noundef %35) #41, !tbaa !15
  %37 = tail call double @llvm.fmuladd.f64(double %33, double %36, double %.01316.i)
  %38 = add i32 %.017.i, 1
  %39 = zext i32 %.017.i to i64
  %exitcond.not.i = icmp eq i64 %indvars.iv, %39
  br i1 %exitcond.not.i, label %_ZN6NFALUT3nfaEii.exit, label %24, !llvm.loop !18

_ZN6NFALUT3nfaEii.exit:                           ; preds = %_ZN6NFALUT4CombEdd.exit.i, %.lr.ph
  %.013.lcssa.i = phi double [ 0.000000e+00, %.lr.ph ], [ %37, %_ZN6NFALUT4CombEdd.exit.i ]
  %40 = load i32, ptr %13, align 8, !tbaa !12
  %41 = sitofp i32 %40 to double
  %42 = fmul double %.013.lcssa.i, %41
  %43 = fmul double %42, %41
  %44 = load i32, ptr %14, align 4, !tbaa !13
  %45 = sitofp i32 %44 to double
  %46 = fmul double %43, %45
  %47 = fmul double %46, %45
  %48 = fcmp ult double %47, 1.000000e+00
  br i1 %48, label %81, label %.preheader

.preheader:                                       ; preds = %_ZN6NFALUT3nfaEii.exit
  %49 = icmp sgt i64 %indvars.iv, %21
  br i1 %49, label %.lr.ph.i28.lr.ph, label %_ZN6NFALUT3nfaEii.exit42._crit_edge

.lr.ph.i28.lr.ph:                                 ; preds = %.preheader
  %50 = trunc nuw nsw i64 %indvars.iv to i32
  %51 = uitofp nneg i32 %50 to double
  br label %.lr.ph.i28

.lr.ph.i28:                                       ; preds = %_ZN6NFALUT3nfaEii.exit42, %.lr.ph.i28.lr.ph
  %.246 = phi i32 [ %.02150, %.lr.ph.i28.lr.ph ], [ %52, %_ZN6NFALUT3nfaEii.exit42 ]
  %52 = add nsw i32 %.246, 1
  br label %53

53:                                               ; preds = %_ZN6NFALUT4CombEdd.exit.i36, %.lr.ph.i28
  %.017.i29 = phi i32 [ %52, %.lr.ph.i28 ], [ %67, %_ZN6NFALUT4CombEdd.exit.i36 ]
  %.01316.i30 = phi double [ 0.000000e+00, %.lr.ph.i28 ], [ %66, %_ZN6NFALUT4CombEdd.exit.i36 ]
  %54 = sitofp i32 %.017.i29 to double
  %55 = fcmp ogt double %54, %51
  br i1 %55, label %_ZN6NFALUT4CombEdd.exit.i36, label %.preheader.i.i31

.preheader.i.i31:                                 ; preds = %53
  %56 = icmp slt i32 %.017.i29, 1
  br i1 %56, label %_ZN6NFALUT4CombEdd.exit.i36, label %.lr.ph.i.i32

.lr.ph.i.i32:                                     ; preds = %.preheader.i.i31, %.lr.ph.i.i32
  %.018.i.i33 = phi double [ %60, %.lr.ph.i.i32 ], [ 1.000000e+00, %.preheader.i.i31 ]
  %.01117.i.i34 = phi double [ %59, %.lr.ph.i.i32 ], [ 1.000000e+00, %.preheader.i.i31 ]
  %.01316.i.i35 = phi double [ %57, %.lr.ph.i.i32 ], [ %51, %.preheader.i.i31 ]
  %57 = fadd double %.01316.i.i35, -1.000000e+00
  %58 = fmul double %.01117.i.i34, %.01316.i.i35
  %59 = fdiv double %58, %.018.i.i33
  %60 = fadd double %.018.i.i33, 1.000000e+00
  %61 = fcmp ugt double %60, %54
  br i1 %61, label %_ZN6NFALUT4CombEdd.exit.i36, label %.lr.ph.i.i32, !llvm.loop !16

_ZN6NFALUT4CombEdd.exit.i36:                      ; preds = %.lr.ph.i.i32, %.preheader.i.i31, %53
  %.012.i.i37 = phi double [ 0.000000e+00, %53 ], [ 1.000000e+00, %.preheader.i.i31 ], [ %59, %.lr.ph.i.i32 ]
  %mul.i38 = fmul double %54, -3.000000e+00
  %exp2.i39 = tail call double @exp2(double %mul.i38)
  %62 = fmul double %.012.i.i37, %exp2.i39
  %63 = sub nsw i32 %50, %.017.i29
  %64 = sitofp i32 %63 to double
  %65 = tail call noundef double @pow(double noundef 8.750000e-01, double noundef %64) #41, !tbaa !15
  %66 = tail call double @llvm.fmuladd.f64(double %62, double %65, double %.01316.i30)
  %67 = add i32 %.017.i29, 1
  %68 = zext i32 %.017.i29 to i64
  %exitcond.not.i40 = icmp eq i64 %indvars.iv, %68
  br i1 %exitcond.not.i40, label %_ZN6NFALUT3nfaEii.exit42, label %53, !llvm.loop !18

_ZN6NFALUT3nfaEii.exit42:                         ; preds = %_ZN6NFALUT4CombEdd.exit.i36
  %69 = load i32, ptr %13, align 8, !tbaa !12
  %70 = sitofp i32 %69 to double
  %71 = fmul double %66, %70
  %72 = fmul double %71, %70
  %73 = load i32, ptr %14, align 4, !tbaa !13
  %74 = sitofp i32 %73 to double
  %75 = fmul double %72, %74
  %76 = fmul double %75, %74
  %77 = fcmp ugt double %76, 1.000000e+00
  %78 = sext i32 %52 to i64
  %79 = icmp sgt i64 %indvars.iv, %78
  %or.cond = select i1 %77, i1 %79, i1 false
  br i1 %or.cond, label %.lr.ph.i28, label %_ZN6NFALUT3nfaEii.exit42._crit_edge, !llvm.loop !19

_ZN6NFALUT3nfaEii.exit42._crit_edge:              ; preds = %_ZN6NFALUT3nfaEii.exit42, %.preheader
  %.3 = phi i32 [ %.02150, %.preheader ], [ %52, %_ZN6NFALUT3nfaEii.exit42 ]
  %.1 = phi double [ %47, %.preheader ], [ %76, %_ZN6NFALUT3nfaEii.exit42 ]
  %80 = fcmp ult double %.1, 1.000000e+00
  br i1 %80, label %81, label %84

81:                                               ; preds = %_ZN6NFALUT3nfaEii.exit42._crit_edge, %_ZN6NFALUT3nfaEii.exit
  %.122 = phi i32 [ %.3, %_ZN6NFALUT3nfaEii.exit42._crit_edge ], [ %.02150, %_ZN6NFALUT3nfaEii.exit ]
  %82 = load ptr, ptr %0, align 8, !tbaa !11
  %83 = getelementptr inbounds nuw i32, ptr %82, i64 %indvars.iv
  store i32 %.122, ptr %83, align 4, !tbaa !15
  br label %84

84:                                               ; preds = %_ZN6NFALUT3nfaEii.exit42._crit_edge, %81
  %.4 = phi i32 [ %.122, %81 ], [ %.3, %_ZN6NFALUT3nfaEii.exit42._crit_edge ]
  %indvars.iv.next = add nuw nsw i64 %indvars.iv, 1
  %85 = load i32, ptr %7, align 8, !tbaa !3
  %86 = sext i32 %85 to i64
  %87 = icmp slt i64 %indvars.iv.next, %86
  br i1 %87, label %.lr.ph, label %._crit_edge55, !llvm.loop !20
}